target datalayout = "e-m:e-p270:32:32-p271:32:32-p272:64:64-i64:64-i128:128-f80:128-n8:16:32:64-S128"
target triple = "x86_64-pc-linux-gnu"

%struct.MatroskaDemuxContext = type { ptr, ptr, [16 x %struct.MatroskaLevel], i32, i32, i64, i32, i64, double, ptr, ptr, %struct.EbmlBin, %struct.EbmlList, %struct.EbmlList, %struct.EbmlList, %struct.EbmlList, %struct.EbmlList, %struct.EbmlList, i64, ptr, %struct.PacketList, i32, i32, i64, i32, [64 x %struct.MatroskaLevel1Element], i32, %struct.MatroskaCluster, i32, i32, i32 }
%struct.MatroskaLevel = type { i64, i64 }
%struct.EbmlBin = type { i32, ptr, ptr, i64 }
%struct.EbmlList = type { i32, i32, ptr }
%struct.PacketList = type { ptr, ptr }
%struct.MatroskaLevel1Element = type { i64, i32, i32 }
%struct.MatroskaCluster = type { %struct.MatroskaBlock, i64, i64 }
%struct.MatroskaBlock = type { i64, %struct.CountedElement, i64, %struct.EbmlBin, %struct.EbmlList, i64 }
%struct.CountedElement = type { %union.anon.0, i32 }
%union.anon.0 = type { i64 }

@ff_log2_tab = external constant [256 x i8], align 16
@.str.45 = private unnamed_addr constant [27 x i8] c"Too many level1 elements.\0A\00", align 1

; Function Attrs: alwaysinline nounwind willreturn memory(none) uwtable
define internal i32 @ff_log2_c(i32 noundef %0) #7 {
  %2 = alloca i32, align 4
  %3 = alloca i32, align 4
  store i32 %0, ptr %2, align 4, !tbaa !9
  call void @llvm.lifetime.start.p0(i64 4, ptr %3) #14
  store i32 0, ptr %3, align 4, !tbaa !9
  %4 = load i32, ptr %2, align 4, !tbaa !9
  %5 = and i32 %4, -65536
  %6 = icmp ne i32 %5, 0
  br i1 %6, label %7, label %12

7:                                                ; preds = %1
  %8 = load i32, ptr %2, align 4, !tbaa !9
  %9 = lshr i32 %8, 16
  store i32 %9, ptr %2, align 4, !tbaa !9
  %10 = load i32, ptr %3, align 4, !tbaa !9
  %11 = add nsw i32 %10, 16
  store i32 %11, ptr %3, align 4, !tbaa !9
  br label %12

12:                                               ; preds = %7, %1
  %13 = load i32, ptr %2, align 4, !tbaa !9
  %14 = and i32 %13, 65280
  %15 = icmp ne i32 %14, 0
  br i1 %15, label %16, label %21

16:                                               ; preds = %12
  %17 = load i32, ptr %2, align 4, !tbaa !9
  %18 = lshr i32 %17, 8
  store i32 %18, ptr %2, align 4, !tbaa !9
  %19 = load i32, ptr %3, align 4, !tbaa !9
  %20 = add nsw i32 %19, 8
  store i32 %20, ptr %3, align 4, !tbaa !9
  br label %21

21:                                               ; preds = %16, %12
  %22 = load i32, ptr %2, align 4, !tbaa !9
  %23 = zext i32 %22 to i64
  %24 = getelementptr inbounds nuw [256 x i8], ptr @ff_log2_tab, i64 0, i64 %23
  %25 = load i8, ptr %24, align 1, !tbaa !69
  %26 = zext i8 %25 to i32
  %27 = load i32, ptr %3, align 4, !tbaa !9
  %28 = add nsw i32 %27, %26
  store i32 %28, ptr %3, align 4, !tbaa !9
  %29 = load i32, ptr %3, align 4, !tbaa !9
  call void @llvm.lifetime.end.p0(i64 4, ptr %3) #14
  ret i32 %29
}

; Function Attrs: nounwind uwtable
define internal i32 @is_ebml_id_valid(i32 noundef %0) #0 {
  %2 = alloca i32, align 4
  %3 = alloca i32, align 4
  store i32 %0, ptr %2, align 4, !tbaa !9
  call void @llvm.lifetime.start.p0(i64 4, ptr %3) #14
  %4 = load i32, ptr %2, align 4, !tbaa !9
  %5 = call i32 @ff_log2_c(i32 noundef %4) #16
  store i32 %5, ptr %3, align 4, !tbaa !9
  %6 = load i32, ptr %2, align 4, !tbaa !9
  %7 = icmp ne i32 %6, 0
  br i1 %7, label %8, label %16

8:                                                ; preds = %1
  %9 = load i32, ptr %3, align 4, !tbaa !9
  %10 = add i32 %9, 7
  %11 = udiv i32 %10, 8
  %12 = load i32, ptr %3, align 4, !tbaa !9
  %13 = urem i32 %12, 8
  %14 = sub i32 8, %13
  %15 = icmp eq i32 %11, %14
  br label %16

16:                                               ; preds = %8, %1
  %17 = phi i1 [ false, %1 ], [ %15, %8 ]
  %18 = zext i1 %17 to i32
  call void @llvm.lifetime.end.p0(i64 4, ptr %3) #14
  ret i32 %18
}

; Function Attrs: nounwind uwtable
define internal ptr @matroska_find_level1_elem(ptr noundef %0, i32 noundef %1, i64 noundef %2) #0 {
  %4 = alloca ptr, align 8
  %5 = alloca ptr, align 8
  %6 = alloca i32, align 4
  %7 = alloca i64, align 8
  %8 = alloca i32, align 4
  %9 = alloca ptr, align 8
  %10 = alloca i32, align 4
  %11 = alloca %struct.MatroskaLevel1Element, align 8
  store ptr %0, ptr %5, align 8, !tbaa !27
  store i32 %1, ptr %6, align 4, !tbaa !9
  store i64 %2, ptr %7, align 8, !tbaa !49
  call void @llvm.lifetime.start.p0(i64 4, ptr %8) #14
  call void @llvm.lifetime.start.p0(i64 8, ptr %9) #14
  %12 = load i32, ptr %6, align 4, !tbaa !9
  %13 = call i32 @is_ebml_id_valid(i32 noundef %12)
  %14 = icmp ne i32 %13, 0
  br i1 %14, label %16, label %15

15:                                               ; preds = %3
  store ptr null, ptr %4, align 8
  store i32 1, ptr %10, align 4
  br label %89

16:                                               ; preds = %3
  %17 = load i32, ptr %6, align 4, !tbaa !9
  %18 = icmp eq i32 %17, 524531317
  br i1 %18, label %19, label %20

19:                                               ; preds = %16
  store ptr null, ptr %4, align 8
  store i32 1, ptr %10, align 4
  br label %89

20:                                               ; preds = %16
  store i32 0, ptr %8, align 4, !tbaa !9
  br label %21

21:                                               ; preds = %61, %20
  %22 = load i32, ptr %8, align 4, !tbaa !9
  %23 = load ptr, ptr %5, align 8, !tbaa !27
  %24 = getelementptr inbounds nuw %struct.MatroskaDemuxContext, ptr %23, i32 0, i32 26
  %25 = load i32, ptr %24, align 8, !tbaa !188
  %26 = icmp slt i32 %22, %25
  br i1 %26, label %27, label %64

27:                                               ; preds = %21
  %28 = load ptr, ptr %5, align 8, !tbaa !27
  %29 = getelementptr inbounds nuw %struct.MatroskaDemuxContext, ptr %28, i32 0, i32 25
  %30 = load i32, ptr %8, align 4, !tbaa !9
  %31 = sext i32 %30 to i64
  %32 = getelementptr inbounds [64 x %struct.MatroskaLevel1Element], ptr %29, i64 0, i64 %31
  %33 = getelementptr inbounds nuw %struct.MatroskaLevel1Element, ptr %32, i32 0, i32 1
  %34 = load i32, ptr %33, align 8, !tbaa !191
  %35 = load i32, ptr %6, align 4, !tbaa !9
  %36 = icmp eq i32 %34, %35
  br i1 %36, label %37, label %60

37:                                               ; preds = %27
  %38 = load ptr, ptr %5, align 8, !tbaa !27
  %39 = getelementptr inbounds nuw %struct.MatroskaDemuxContext, ptr %38, i32 0, i32 25
  %40 = load i32, ptr %8, align 4, !tbaa !9
  %41 = sext i32 %40 to i64
  %42 = getelementptr inbounds [64 x %struct.MatroskaLevel1Element], ptr %39, i64 0, i64 %41
  %43 = getelementptr inbounds nuw %struct.MatroskaLevel1Element, ptr %42, i32 0, i32 0
  %44 = load i64, ptr %43, align 8, !tbaa !194
  %45 = load i64, ptr %7, align 8, !tbaa !49
  %46 = icmp eq i64 %44, %45
  br i1 %46, label %53, label %47

47:                                               ; preds = %37
  %48 = load i32, ptr %6, align 4, !tbaa !9
  %49 = icmp ne i32 %48, 290298740
  br i1 %49, label %50, label %59

50:                                               ; preds = %47
  %51 = load i32, ptr %6, align 4, !tbaa !9
  %52 = icmp ne i32 %51, 307544935
  br i1 %52, label %53, label %59

53:                                               ; preds = %50, %37
  %54 = load ptr, ptr %5, align 8, !tbaa !27
  %55 = getelementptr inbounds nuw %struct.MatroskaDemuxContext, ptr %54, i32 0, i32 25
  %56 = load i32, ptr %8, align 4, !tbaa !9
  %57 = sext i32 %56 to i64
  %58 = getelementptr inbounds [64 x %struct.MatroskaLevel1Element], ptr %55, i64 0, i64 %57
  store ptr %58, ptr %4, align 8
  store i32 1, ptr %10, align 4
  br label %89

59:                                               ; preds = %50, %47
  br label %60

60:                                               ; preds = %59, %27
  br label %61

61:                                               ; preds = %60
  %62 = load i32, ptr %8, align 4, !tbaa !9
  %63 = add nsw i32 %62, 1
  store i32 %63, ptr %8, align 4, !tbaa !9
  br label %21, !llvm.loop !262

64:                                               ; preds = %21
  %65 = load ptr, ptr %5, align 8, !tbaa !27
  %66 = getelementptr inbounds nuw %struct.MatroskaDemuxContext, ptr %65, i32 0, i32 26
  %67 = load i32, ptr %66, align 8, !tbaa !188
  %68 = sext i32 %67 to i64
  %69 = icmp uge i64 %68, 64
  br i1 %69, label %70, label %74

70:                                               ; preds = %64
  %71 = load ptr, ptr %5, align 8, !tbaa !27
  %72 = getelementptr inbounds nuw %struct.MatroskaDemuxContext, ptr %71, i32 0, i32 1
  %73 = load ptr, ptr %72, align 8, !tbaa !79
  call void (ptr, i32, ptr, ...) @av_log(ptr noundef %73, i32 noundef 16, ptr noundef @.str.45)
  store ptr null, ptr %4, align 8
  store i32 1, ptr %10, align 4
  br label %89

74:                                               ; preds = %64
  %75 = load ptr, ptr %5, align 8, !tbaa !27
  %76 = getelementptr inbounds nuw %struct.MatroskaDemuxContext, ptr %75, i32 0, i32 25
  %77 = load ptr, ptr %5, align 8, !tbaa !27
  %78 = getelementptr inbounds nuw %struct.MatroskaDemuxContext, ptr %77, i32 0, i32 26
  %79 = load i32, ptr %78, align 8, !tbaa !188
  %80 = add nsw i32 %79, 1
  store i32 %80, ptr %78, align 8, !tbaa !188
  %81 = sext i32 %79 to i64
  %82 = getelementptr inbounds [64 x %struct.MatroskaLevel1Element], ptr %76, i64 0, i64 %81
  store ptr %82, ptr %9, align 8, !tbaa !189
  %83 = load ptr, ptr %9, align 8, !tbaa !189
  %84 = getelementptr inbounds nuw %struct.MatroskaLevel1Element, ptr %11, i32 0, i32 0
  store i64 0, ptr %84, align 8, !tbaa !194
  %85 = getelementptr inbounds nuw %struct.MatroskaLevel1Element, ptr %11, i32 0, i32 1
  %86 = load i32, ptr %6, align 4, !tbaa !9
  store i32 %86, ptr %85, align 8, !tbaa !191
  %87 = getelementptr inbounds nuw %struct.MatroskaLevel1Element, ptr %11, i32 0, i32 2
  store i32 0, ptr %87, align 4, !tbaa !193
  call void @llvm.memcpy.p0.p0.i64(ptr align 8 %83, ptr align 8 %11, i64 16, i1 false), !tbaa.struct !263
  %88 = load ptr, ptr %9, align 8, !tbaa !189
  store ptr %88, ptr %4, align 8
  store i32 1, ptr %10, align 4
  br label %89

89:                                               ; preds = %74, %70, %53, %19, %15
  call void @llvm.lifetime.end.p0(i64 8, ptr %9) #14
  call void @llvm.lifetime.end.p0(i64 4, ptr %8) #14
  %90 = load ptr, ptr %4, align 8
  ret ptr %90
}