; Function Attrs: nounwind uwtable
define internal fastcc ptr @matroska_find_level1_elem(ptr noundef captures(ret: address, provenance) %0, i32 noundef %1, i64 noundef %2) unnamed_addr #0 {
  %.not.i = icmp eq i32 %1, 0
  br i1 %.not.i, label %is_ebml_id_valid.exit.thread, label %is_ebml_id_valid.exit

is_ebml_id_valid.exit:                            ; preds = %3
  %.not.i.i = icmp ult i32 %1, 65536
  %4 = lshr i32 %1, 16
  %spec.select.i.i = select i1 %.not.i.i, i32 %1, i32 %4
  %spec.select12.i.i = select i1 %.not.i.i, i32 0, i32 16
  %.not11.i.i = icmp samesign ult i32 %spec.select.i.i, 256
  %5 = lshr i32 %spec.select.i.i, 8
  %6 = or disjoint i32 %spec.select12.i.i, 8
  %.110.i.i = select i1 %.not11.i.i, i32 %spec.select.i.i, i32 %5
  %.1.i.i = select i1 %.not11.i.i, i32 %spec.select12.i.i, i32 %6
  %7 = zext nneg i32 %.110.i.i to i64
  %8 = getelementptr inbounds nuw [256 x i8], ptr @ff_log2_tab, i64 0, i64 %7
  %9 = load i8, ptr %8, align 1, !tbaa !119
  %10 = zext i8 %9 to i32
  %11 = or disjoint i32 %.1.i.i, 7
  %12 = add nuw nsw i32 %11, %10
  %13 = lshr i32 %12, 3
  %14 = and i32 %10, 7
  %15 = sub nuw nsw i32 8, %14
  %16 = icmp ne i32 %13, %15
  %17 = icmp eq i32 %1, 524531317
  %or.cond = or i1 %17, %16
  br i1 %or.cond, label %is_ebml_id_valid.exit.thread, label %.preheader

.preheader:                                       ; preds = %is_ebml_id_valid.exit
  %18 = getelementptr inbounds nuw i8, ptr %0, i64 1536
  %19 = load i32, ptr %18, align 8, !tbaa !63
  %20 = icmp sgt i32 %19, 0
  br i1 %20, label %.lr.ph, label %._crit_edge

.lr.ph:                                           ; preds = %.preheader
  %21 = getelementptr inbounds nuw i8, ptr %0, i64 512
  switch i32 %1, label %.lr.ph.split.preheader [
    i32 307544935, label %.lr.ph.split.us
    i32 290298740, label %.lr.ph.split.us
  ]

.lr.ph.split.preheader:                           ; preds = %.lr.ph
  %wide.trip.count45 = zext nneg i32 %19 to i64
  br label %.lr.ph.split

.lr.ph.split.us:                                  ; preds = %.lr.ph, %.lr.ph
  %wide.trip.count = zext nneg i32 %19 to i64
  br label %22

22:                                               ; preds = %30, %.lr.ph.split.us
  %indvars.iv = phi i64 [ %indvars.iv.next, %30 ], [ 0, %.lr.ph.split.us ]
  %23 = getelementptr inbounds nuw [64 x %struct.MatroskaLevel1Element], ptr %21, i64 0, i64 %indvars.iv
  %24 = getelementptr inbounds nuw i8, ptr %23, i64 8
  %25 = load i32, ptr %24, align 8, !tbaa !64
  %26 = icmp eq i32 %25, %1
  br i1 %26, label %27, label %30

27:                                               ; preds = %22
  %28 = load i64, ptr %23, align 8, !tbaa !67
  %29 = icmp eq i64 %28, %2
  br i1 %29, label %is_ebml_id_valid.exit.thread, label %30

30:                                               ; preds = %27, %22
  %indvars.iv.next = add nuw nsw i64 %indvars.iv, 1
  %exitcond.not = icmp eq i64 %indvars.iv.next, %wide.trip.count
  br i1 %exitcond.not, label %._crit_edge, label %22, !llvm.loop !415

.lr.ph.split:                                     ; preds = %.lr.ph.split.preheader, %35
  %indvars.iv42 = phi i64 [ 0, %.lr.ph.split.preheader ], [ %indvars.iv.next43, %35 ]
  %31 = getelementptr inbounds nuw [64 x %struct.MatroskaLevel1Element], ptr %21, i64 0, i64 %indvars.iv42
  %32 = getelementptr inbounds nuw i8, ptr %31, i64 8
  %33 = load i32, ptr %32, align 8, !tbaa !64
  %34 = icmp eq i32 %33, %1
  br i1 %34, label %is_ebml_id_valid.exit.thread, label %35

35:                                               ; preds = %.lr.ph.split
  %indvars.iv.next43 = add nuw nsw i64 %indvars.iv42, 1
  %exitcond46.not = icmp eq i64 %indvars.iv.next43, %wide.trip.count45
  br i1 %exitcond46.not, label %._crit_edge, label %.lr.ph.split, !llvm.loop !415

._crit_edge:                                      ; preds = %30, %35, %.preheader
  %36 = icmp ugt i32 %19, 63
  br i1 %36, label %37, label %40

37:                                               ; preds = %._crit_edge
  %38 = getelementptr inbounds nuw i8, ptr %0, i64 8
  %39 = load ptr, ptr %38, align 8, !tbaa !58
  tail call void (ptr, i32, ptr, ...) @av_log(ptr noundef %39, i32 noundef 16, ptr noundef nonnull @.str.45) #15
  br label %is_ebml_id_valid.exit.thread

40:                                               ; preds = %._crit_edge
  %41 = zext nneg i32 %19 to i64
  %42 = getelementptr inbounds nuw i8, ptr %0, i64 512
  %43 = add nuw nsw i32 %19, 1
  store i32 %43, ptr %18, align 8, !tbaa !63
  %44 = getelementptr inbounds nuw [64 x %struct.MatroskaLevel1Element], ptr %42, i64 0, i64 %41
  store i64 0, ptr %44, align 8, !tbaa !61
  %.sroa.2.0..sroa_idx = getelementptr inbounds nuw i8, ptr %44, i64 8
  store i32 %1, ptr %.sroa.2.0..sroa_idx, align 8, !tbaa !211
  %.sroa.3.0..sroa_idx = getelementptr inbounds nuw i8, ptr %44, i64 12
  store i32 0, ptr %.sroa.3.0..sroa_idx, align 4, !tbaa !211
  br label %is_ebml_id_valid.exit.thread

is_ebml_id_valid.exit.thread:                     ; preds = %27, %.lr.ph.split, %3, %is_ebml_id_valid.exit, %40, %37
  %.0 = phi ptr [ null, %37 ], [ %44, %40 ], [ null, %is_ebml_id_valid.exit ], [ null, %3 ], [ %31, %.lr.ph.split ], [ %23, %27 ]
  ret ptr %.0
}